; Function Attrs: nofree norecurse nosync nounwind memory(argmem: write) uwtable
define internal noundef i32 @zueci_u_iso8859_6(i32 noundef %0, ptr nocapture noundef writeonly %1) #1 {
  %3 = icmp ult i32 %0, 160
  br i1 %3, label %4, label %8

4:                                                ; preds = %2
  %5 = icmp ugt i32 %0, 127
  br i1 %5, label %zueci_u_iso8859.exit, label %6

6:                                                ; preds = %4
  %7 = trunc nuw nsw i32 %0 to i8
  br label %.loopexit.sink.split.i

8:                                                ; preds = %2
  %9 = icmp ult i32 %0, 256
  br i1 %9, label %10, label %.lr.ph.i.preheader

.lr.ph.i.preheader:                               ; preds = %10, %8
  br label %.lr.ph.i

10:                                               ; preds = %8
  %11 = add nsw i32 %0, -160
  %12 = lshr i32 %11, 4
  %13 = zext nneg i32 %12 to i64
  %14 = getelementptr inbounds i16, ptr @zueci_iso8859_6_s, i64 %13
  %15 = load i16, ptr %14, align 2
  %16 = zext i16 %15 to i32
  %17 = and i32 %0, 15
  %18 = shl nuw nsw i32 1, %17
  %19 = and i32 %18, %16
  %.not.i = icmp eq i32 %19, 0
  br i1 %.not.i, label %.lr.ph.i.preheader, label %20

20:                                               ; preds = %10
  %21 = trunc nuw i32 %0 to i8
  br label %.loopexit.sink.split.i

.lr.ph.i:                                         ; preds = %.lr.ph.i.preheader, %38
  %.02634.i = phi i32 [ %.1.i, %38 ], [ 47, %.lr.ph.i.preheader ]
  %.02733.i = phi i32 [ %.128.i, %38 ], [ 0, %.lr.ph.i.preheader ]
  %22 = add nuw nsw i32 %.02733.i, %.02634.i
  %23 = lshr i32 %22, 1
  %24 = zext nneg i32 %23 to i64
  %25 = getelementptr inbounds i16, ptr @zueci_iso8859_6_u_u, i64 %24
  %26 = load i16, ptr %25, align 2
  %27 = zext i16 %26 to i32
  %28 = icmp ult i32 %27, %0
  br i1 %28, label %29, label %31

29:                                               ; preds = %.lr.ph.i
  %30 = add nuw nsw i32 %23, 1
  br label %38

31:                                               ; preds = %.lr.ph.i
  %32 = icmp ugt i32 %27, %0
  br i1 %32, label %33, label %35

33:                                               ; preds = %31
  %34 = add nsw i32 %23, -1
  br label %38

35:                                               ; preds = %31
  %36 = getelementptr inbounds i8, ptr @zueci_iso8859_6_u_sb, i64 %24
  %37 = load i8, ptr %36, align 1
  br label %.loopexit.sink.split.i

38:                                               ; preds = %33, %29
  %.128.i = phi i32 [ %30, %29 ], [ %.02733.i, %33 ]
  %.1.i = phi i32 [ %.02634.i, %29 ], [ %34, %33 ]
  %.not31.i = icmp sgt i32 %.128.i, %.1.i
  br i1 %.not31.i, label %zueci_u_iso8859.exit, label %.lr.ph.i, !llvm.loop !9

.loopexit.sink.split.i:                           ; preds = %35, %20, %6
  %.sink.i = phi i8 [ %37, %35 ], [ %21, %20 ], [ %7, %6 ]
  store i8 %.sink.i, ptr %1, align 1
  br label %zueci_u_iso8859.exit

zueci_u_iso8859.exit:                             ; preds = %38, %4, %.loopexit.sink.split.i
  %.0.i = phi i32 [ 0, %4 ], [ 1, %.loopexit.sink.split.i ], [ 0, %38 ]
  ret i32 %.0.i
}